target datalayout = "e-m:e-p270:32:32-p271:32:32-p272:64:64-i64:64-i128:128-f80:128-n8:16:32:64-S128"
target triple = "x86_64-pc-linux-gnu"

%"class.std::__cxx11::basic_string" = type { %"struct.std::__cxx11::basic_string<char>::_Alloc_hider", i64, %union.anon }
%"struct.std::__cxx11::basic_string<char>::_Alloc_hider" = type { ptr }
%union.anon = type { i64, [8 x i8] }
%"class.std::allocator.4" = type { i8 }
%"struct.nix::SQLite" = type { ptr }

@.str.18 = private unnamed_addr constant [17 x i8] c"closing database\00", align 1

; Function Attrs: mustprogress nounwind uwtable
define void @_ZN3nix6SQLiteD2Ev(ptr noundef nonnull align 8 dereferenceable(8) %0) unnamed_addr #2 align 2 personality ptr @__gxx_personality_v0 {
  %2 = alloca ptr, align 8
  %3 = alloca ptr, align 8
  %4 = alloca i32, align 4
  %5 = alloca %"class.std::__cxx11::basic_string", align 8
  %6 = alloca %"class.std::allocator.4", align 1
  store ptr %0, ptr %2, align 8
  %7 = load ptr, ptr %2, align 8
  %8 = getelementptr inbounds %"struct.nix::SQLite", ptr %7, i32 0, i32 0
  %9 = load ptr, ptr %8, align 8
  %10 = icmp ne ptr %9, null
  br i1 %10, label %11, label %41

11:                                               ; preds = %1
  %12 = getelementptr inbounds %"struct.nix::SQLite", ptr %7, i32 0, i32 0
  %13 = load ptr, ptr %12, align 8
  %14 = invoke i32 @sqlite3_close(ptr noundef %13)
          to label %15 unwind label %22

15:                                               ; preds = %11
  %16 = icmp ne i32 %14, 0
  br i1 %16, label %17, label %41

17:                                               ; preds = %15
  %18 = getelementptr inbounds %"struct.nix::SQLite", ptr %7, i32 0, i32 0
  %19 = load ptr, ptr %18, align 8
  call void @_ZNSaIcEC1Ev(ptr noundef nonnull align 1 dereferenceable(1) %6) #1
  invoke void @_ZNSt7__cxx1112basic_stringIcSt11char_traitsIcESaIcEEC2IS3_EEPKcRKS3_(ptr noundef nonnull align 8 dereferenceable(32) %5, ptr noundef @.str.18, ptr noundef nonnull align 1 dereferenceable(1) %6)
          to label %20 unwind label %26

20:                                               ; preds = %17
  invoke void @_ZN3nix11SQLiteError6throw_IJEEEvP7sqlite3RKNSt7__cxx1112basic_stringIcSt11char_traitsIcESaIcEEEDpRKT_(ptr noundef %19, ptr noundef nonnull align 8 dereferenceable(32) %5) #18
          to label %21 unwind label %30

21:                                               ; preds = %20
  unreachable

22:                                               ; preds = %11
  %23 = landingpad { ptr, i32 }
          catch ptr null
  %24 = extractvalue { ptr, i32 } %23, 0
  store ptr %24, ptr %3, align 8
  %25 = extractvalue { ptr, i32 } %23, 1
  store i32 %25, ptr %4, align 4
  br label %35

26:                                               ; preds = %17
  %27 = landingpad { ptr, i32 }
          catch ptr null
  %28 = extractvalue { ptr, i32 } %27, 0
  store ptr %28, ptr %3, align 8
  %29 = extractvalue { ptr, i32 } %27, 1
  store i32 %29, ptr %4, align 4
  br label %34

30:                                               ; preds = %20
  %31 = landingpad { ptr, i32 }
          catch ptr null
  %32 = extractvalue { ptr, i32 } %31, 0
  store ptr %32, ptr %3, align 8
  %33 = extractvalue { ptr, i32 } %31, 1
  store i32 %33, ptr %4, align 4
  call void @_ZNSt7__cxx1112basic_stringIcSt11char_traitsIcESaIcEED2Ev(ptr noundef nonnull align 8 dereferenceable(32) %5) #1
  br label %34

34:                                               ; preds = %30, %26
  call void @_ZNSaIcED1Ev(ptr noundef nonnull align 1 dereferenceable(1) %6) #1
  br label %35

35:                                               ; preds = %34, %22
  %36 = load ptr, ptr %3, align 8
  %37 = call ptr @__cxa_begin_catch(ptr %36) #1
  invoke void @_ZN3nix15ignoreExceptionENS_9VerbosityE(i32 noundef 0)
          to label %38 unwind label %42

38:                                               ; preds = %35
  invoke void @__cxa_end_catch()
          to label %39 unwind label %42

39:                                               ; preds = %38
  br label %40

40:                                               ; preds = %41, %39
  ret void

41:                                               ; preds = %15, %1
  br label %40

42:                                               ; preds = %38, %35
  %43 = landingpad { ptr, i32 }
          catch ptr null
  %44 = extractvalue { ptr, i32 } %43, 0
  call void @__clang_call_terminate(ptr %44) #19
  unreachable
}