; Function Attrs: mustprogress nounwind uwtable
define void @_ZN3nix6SQLiteD2Ev(ptr nocapture noundef nonnull readonly align 8 dereferenceable(8) %0) unnamed_addr #4 align 2 personality ptr @__gxx_personality_v0 {
  %2 = alloca %"class.std::__cxx11::basic_string", align 8
  %3 = alloca %"class.std::allocator.4", align 1
  %4 = load ptr, ptr %0, align 8
  %.not = icmp eq ptr %4, null
  br i1 %.not, label %22, label %5

5:                                                ; preds = %1
  %6 = invoke i32 @sqlite3_close(ptr noundef nonnull %4)
          to label %7 unwind label %12

7:                                                ; preds = %5
  %.not3 = icmp eq i32 %6, 0
  br i1 %.not3, label %22, label %8

8:                                                ; preds = %7
  %9 = load ptr, ptr %0, align 8
  call void @_ZNSaIcEC1Ev(ptr noundef nonnull align 1 dereferenceable(1) %3) #22
  invoke void @_ZNSt7__cxx1112basic_stringIcSt11char_traitsIcESaIcEEC2IS3_EEPKcRKS3_(ptr noundef nonnull align 8 dereferenceable(32) %2, ptr noundef nonnull @.str.18, ptr noundef nonnull align 1 dereferenceable(1) %3)
          to label %10 unwind label %14

10:                                               ; preds = %8
  invoke void @_ZN3nix11SQLiteError6throw_IJEEEvP7sqlite3RKNSt7__cxx1112basic_stringIcSt11char_traitsIcESaIcEEEDpRKT_(ptr noundef %9, ptr noundef nonnull align 8 dereferenceable(32) %2) #24
          to label %11 unwind label %16

11:                                               ; preds = %10
  unreachable

12:                                               ; preds = %5
  %13 = landingpad { ptr, i32 }
          catch ptr null
  br label %19

14:                                               ; preds = %8
  %15 = landingpad { ptr, i32 }
          catch ptr null
  br label %18

16:                                               ; preds = %10
  %17 = landingpad { ptr, i32 }
          catch ptr null
  call void @_ZNSt7__cxx1112basic_stringIcSt11char_traitsIcESaIcEED2Ev(ptr noundef nonnull align 8 dereferenceable(32) %2) #22
  br label %18

18:                                               ; preds = %16, %14
  %.pn = phi { ptr, i32 } [ %17, %16 ], [ %15, %14 ]
  call void @_ZNSaIcED1Ev(ptr noundef nonnull align 1 dereferenceable(1) %3) #22
  br label %19

19:                                               ; preds = %18, %12
  %.pn.pn = phi { ptr, i32 } [ %.pn, %18 ], [ %13, %12 ]
  %.1 = extractvalue { ptr, i32 } %.pn.pn, 0
  %20 = call ptr @__cxa_begin_catch(ptr %.1) #22
  invoke void @_ZN3nix15ignoreExceptionENS_9VerbosityE(i32 noundef 0)
          to label %21 unwind label %23

21:                                               ; preds = %19
  invoke void @__cxa_end_catch()
          to label %22 unwind label %23

22:                                               ; preds = %1, %7, %21
  ret void

23:                                               ; preds = %21, %19
  %24 = landingpad { ptr, i32 }
          catch ptr null
  %25 = extractvalue { ptr, i32 } %24, 0
  call void @__clang_call_terminate(ptr %25) #26
  unreachable
}